target datalayout = "e-m:e-p270:32:32-p271:32:32-p272:64:64-i64:64-i128:128-f80:128-n8:16:32:64-S128"
target triple = "x86_64-pc-linux-gnu"

%"class.llvm::SmallVectorBase" = type { ptr, i32, i32 }
%"class.clang::ASTStmtReader" = type <{ ptr, ptr, %"class.std::optional", [4 x i8] }>
%"class.std::optional" = type { %"struct.std::_Optional_base" }
%"struct.std::_Optional_base" = type { %"struct.std::_Optional_payload" }
%"struct.std::_Optional_payload" = type { %"struct.std::_Optional_payload_base.base", [3 x i8] }
%"struct.std::_Optional_payload_base.base" = type <{ %"union.std::_Optional_payload_base<clang::BitsUnpacker>::_Storage", i8 }>
%"union.std::_Optional_payload_base<clang::BitsUnpacker>::_Storage" = type { %"class.clang::BitsUnpacker" }
%"class.clang::BitsUnpacker" = type { i32, i32 }
%"class.clang::Stmt" = type { %union.anon.9 }
%union.anon.9 = type { %"class.clang::Stmt::PseudoObjectExprBitfields" }
%"class.clang::Stmt::PseudoObjectExprBitfields" = type { i64 }
%"class.clang::ASTRecordReader" = type { %"class.clang::serialization::DataStreamBasicReader", ptr, ptr, i32, %"class.llvm::SmallVector.4" }
%"class.clang::serialization::DataStreamBasicReader" = type { %"class.clang::serialization::BasicReaderBase" }
%"class.clang::serialization::BasicReaderBase" = type { ptr }
%"class.llvm::SmallVector.4" = type { %"class.llvm::SmallVectorImpl.5", %"struct.llvm::SmallVectorStorage.8" }
%"class.llvm::SmallVectorImpl.5" = type { %"class.llvm::SmallVectorTemplateBase.6" }
%"class.llvm::SmallVectorTemplateBase.6" = type { %"class.llvm::SmallVectorTemplateCommon.7" }
%"class.llvm::SmallVectorTemplateCommon.7" = type { %"class.llvm::SmallVectorBase" }
%"struct.llvm::SmallVectorStorage.8" = type { [512 x i8] }
%"class.clang::ValueStmt" = type { %"class.clang::Stmt" }
%"class.clang::Expr" = type { %"class.clang::ValueStmt", %"class.clang::QualType" }
%"class.clang::QualType" = type { %"class.llvm::PointerIntPair.201" }
%"class.llvm::PointerIntPair.201" = type { %"struct.llvm::detail::PunnedPointer.202" }
%"struct.llvm::detail::PunnedPointer.202" = type { [8 x i8] }
%"class.clang::BinaryOperator" = type { %"class.clang::Expr", [2 x ptr] }
%"class.clang::CompoundAssignOperator" = type { %"class.clang::BinaryOperator", %"class.clang::QualType", %"class.clang::QualType" }

; Function Attrs: mustprogress nounwind uwtable
define linkonce_odr hidden noundef nonnull align 8 dereferenceable(8) ptr @_ZN4llvm6detail13PunnedPointerINS_12PointerUnionIJPKN5clang4TypeEPKNS3_8ExtQualsEEEEEaSEl(ptr noundef nonnull align 8 dereferenceable(8) %0, i64 noundef %1) #0 comdat align 2 {
  %3 = alloca ptr, align 8
  %4 = alloca i64, align 8
  store ptr %0, ptr %3, align 8
  store i64 %1, ptr %4, align 8
  %5 = load ptr, ptr %3, align 8
  %6 = getelementptr inbounds nuw %"struct.llvm::detail::PunnedPointer.202", ptr %5, i32 0, i32 0
  %7 = getelementptr inbounds [8 x i8], ptr %6, i64 0, i64 0
  call void @llvm.memcpy.p0.p0.i64(ptr align 8 %7, ptr align 8 %4, i64 8, i1 false)
  ret ptr %5
}

; Function Attrs: mustprogress nounwind uwtable
define linkonce_odr hidden void @_ZN4llvm6detail13PunnedPointerINS_12PointerUnionIJPKN5clang4TypeEPKNS3_8ExtQualsEEEEEC2El(ptr noundef nonnull align 8 dereferenceable(8) %0, i64 noundef %1) unnamed_addr #0 comdat align 2 {
  %3 = alloca ptr, align 8
  %4 = alloca i64, align 8
  store ptr %0, ptr %3, align 8
  store i64 %1, ptr %4, align 8
  %5 = load ptr, ptr %3, align 8
  %6 = load i64, ptr %4, align 8
  %7 = call noundef nonnull align 8 dereferenceable(8) ptr @_ZN4llvm6detail13PunnedPointerINS_12PointerUnionIJPKN5clang4TypeEPKNS3_8ExtQualsEEEEEaSEl(ptr noundef nonnull align 8 dereferenceable(8) %5, i64 noundef %6)
  ret void
}

; Function Attrs: mustprogress nounwind uwtable
define linkonce_odr hidden noundef ptr @_ZNK4llvm25SmallVectorTemplateCommonImvE5beginEv(ptr noundef nonnull align 8 dereferenceable(16) %0) #0 comdat align 2 {
  %2 = alloca ptr, align 8
  store ptr %0, ptr %2, align 8
  %3 = load ptr, ptr %2, align 8
  %4 = getelementptr inbounds nuw %"class.llvm::SmallVectorBase", ptr %3, i32 0, i32 0
  %5 = load ptr, ptr %4, align 8
  ret ptr %5
}

; Function Attrs: mustprogress nounwind uwtable
define linkonce_odr hidden void @_ZN4llvm14PointerIntPairINS_12PointerUnionIJPKN5clang4TypeEPKNS2_8ExtQualsEEEELj3EjNS_21PointerLikeTypeTraitsIS9_EENS_18PointerIntPairInfoIS9_Lj3ESB_EEEC2Ev(ptr noundef nonnull align 8 dereferenceable(8) %0) unnamed_addr #0 comdat align 2 {
  %2 = alloca ptr, align 8
  store ptr %0, ptr %2, align 8
  %3 = load ptr, ptr %2, align 8
  %4 = getelementptr inbounds nuw %"class.llvm::PointerIntPair.201", ptr %3, i32 0, i32 0
  call void @_ZN4llvm6detail13PunnedPointerINS_12PointerUnionIJPKN5clang4TypeEPKNS3_8ExtQualsEEEEEC2El(ptr noundef nonnull align 8 dereferenceable(8) %4, i64 noundef 0)
  ret void
}

; Function Attrs: mustprogress nounwind uwtable
define linkonce_odr hidden noundef nonnull align 8 dereferenceable(8) ptr @_ZNK4llvm25SmallVectorTemplateCommonImvEixEm(ptr noundef nonnull align 8 dereferenceable(16) %0, i64 noundef %1) #0 comdat align 2 {
  %3 = alloca ptr, align 8
  %4 = alloca i64, align 8
  store ptr %0, ptr %3, align 8
  store i64 %1, ptr %4, align 8
  %5 = load ptr, ptr %3, align 8
  %6 = call noundef ptr @_ZNK4llvm25SmallVectorTemplateCommonImvE5beginEv(ptr noundef nonnull align 8 dereferenceable(16) %5)
  %7 = load i64, ptr %4, align 8
  %8 = getelementptr inbounds i64, ptr %6, i64 %7
  ret ptr %8
}

; Function Attrs: mustprogress nounwind uwtable
define linkonce_odr hidden void @_ZN5clang8QualTypeC2Ev(ptr noundef nonnull align 8 dereferenceable(8) %0) unnamed_addr #0 comdat align 2 {
  %2 = alloca ptr, align 8
  store ptr %0, ptr %2, align 8
  %3 = load ptr, ptr %2, align 8
  %4 = getelementptr inbounds nuw %"class.clang::QualType", ptr %3, i32 0, i32 0
  call void @_ZN4llvm14PointerIntPairINS_12PointerUnionIJPKN5clang4TypeEPKNS2_8ExtQualsEEEELj3EjNS_21PointerLikeTypeTraitsIS9_EENS_18PointerIntPairInfoIS9_Lj3ESB_EEEC2Ev(ptr noundef nonnull align 8 dereferenceable(8) %4)
  ret void
}

; Function Attrs: mustprogress nounwind uwtable
define linkonce_odr hidden i64 @_ZN5clang9ASTReader8readTypeERNS_13serialization10ModuleFileERKN4llvm11SmallVectorImLj64EEERj(ptr noundef nonnull align 8 dereferenceable(15968) %0, ptr noundef nonnull align 8 dereferenceable(3464) %1, ptr noundef nonnull align 8 dereferenceable(528) %2, ptr noundef nonnull align 4 dereferenceable(4) %3) #0 comdat align 2 {
  %5 = alloca %"class.clang::QualType", align 8
  %6 = alloca ptr, align 8
  %7 = alloca ptr, align 8
  %8 = alloca ptr, align 8
  %9 = alloca ptr, align 8
  store ptr %0, ptr %6, align 8
  store ptr %1, ptr %7, align 8
  store ptr %2, ptr %8, align 8
  store ptr %3, ptr %9, align 8
  %10 = load ptr, ptr %6, align 8
  %11 = load ptr, ptr %9, align 8
  %12 = load i32, ptr %11, align 4
  %13 = zext i32 %12 to i64
  %14 = load ptr, ptr %8, align 8
  %15 = call noundef i64 @_ZNK4llvm15SmallVectorBaseIjE4sizeEv(ptr noundef nonnull align 8 dereferenceable(16) %14)
  %16 = icmp uge i64 %13, %15
  br i1 %16, label %17, label %18

17:                                               ; preds = %4
  call void @llvm.memset.p0.i64(ptr align 8 %5, i8 0, i64 8, i1 false)
  call void @_ZN5clang8QualTypeC2Ev(ptr noundef nonnull align 8 dereferenceable(8) %5)
  br label %31

18:                                               ; preds = %4
  %19 = load ptr, ptr %7, align 8
  %20 = load ptr, ptr %8, align 8
  %21 = load ptr, ptr %9, align 8
  %22 = load i32, ptr %21, align 4
  %23 = add i32 %22, 1
  store i32 %23, ptr %21, align 4
  %24 = zext i32 %22 to i64
  %25 = call noundef nonnull align 8 dereferenceable(8) ptr @_ZNK4llvm25SmallVectorTemplateCommonImvEixEm(ptr noundef nonnull align 8 dereferenceable(16) %20, i64 noundef %24)
  %26 = load i64, ptr %25, align 8
  %27 = call i64 @_ZN5clang9ASTReader12getLocalTypeERNS_13serialization10ModuleFileEm(ptr noundef nonnull align 8 dereferenceable(15968) %10, ptr noundef nonnull align 8 dereferenceable(3464) %19, i64 noundef %26)
  %28 = getelementptr inbounds nuw %"class.clang::QualType", ptr %5, i32 0, i32 0
  %29 = getelementptr inbounds nuw %"class.llvm::PointerIntPair.201", ptr %28, i32 0, i32 0
  %30 = getelementptr inbounds nuw %"struct.llvm::detail::PunnedPointer.202", ptr %29, i32 0, i32 0
  store i64 %27, ptr %30, align 8
  br label %31

31:                                               ; preds = %18, %17
  %32 = getelementptr inbounds nuw %"class.clang::QualType", ptr %5, i32 0, i32 0
  %33 = getelementptr inbounds nuw %"class.llvm::PointerIntPair.201", ptr %32, i32 0, i32 0
  %34 = getelementptr inbounds nuw %"struct.llvm::detail::PunnedPointer.202", ptr %33, i32 0, i32 0
  %35 = load i64, ptr %34, align 8
  ret i64 %35
}

; Function Attrs: mustprogress nounwind uwtable
define linkonce_odr hidden void @_ZN5clang22CompoundAssignOperator24setComputationResultTypeENS_8QualTypeE(ptr noundef nonnull align 8 dereferenceable(48) %0, i64 %1) #0 comdat align 2 {
  %3 = alloca %"class.clang::QualType", align 8
  %4 = alloca ptr, align 8
  %5 = getelementptr inbounds nuw %"class.clang::QualType", ptr %3, i32 0, i32 0
  %6 = getelementptr inbounds nuw %"class.llvm::PointerIntPair.201", ptr %5, i32 0, i32 0
  %7 = getelementptr inbounds nuw %"struct.llvm::detail::PunnedPointer.202", ptr %6, i32 0, i32 0
  store i64 %1, ptr %7, align 8
  store ptr %0, ptr %4, align 8
  %8 = load ptr, ptr %4, align 8
  %9 = getelementptr inbounds nuw %"class.clang::CompoundAssignOperator", ptr %8, i32 0, i32 2
  call void @llvm.memcpy.p0.p0.i64(ptr align 8 %9, ptr align 8 %3, i64 8, i1 false)
  ret void
}

; Function Attrs: mustprogress nounwind uwtable
define linkonce_odr hidden void @_ZN5clang22CompoundAssignOperator21setComputationLHSTypeENS_8QualTypeE(ptr noundef nonnull align 8 dereferenceable(48) %0, i64 %1) #0 comdat align 2 {
  %3 = alloca %"class.clang::QualType", align 8
  %4 = alloca ptr, align 8
  %5 = getelementptr inbounds nuw %"class.clang::QualType", ptr %3, i32 0, i32 0
  %6 = getelementptr inbounds nuw %"class.llvm::PointerIntPair.201", ptr %5, i32 0, i32 0
  %7 = getelementptr inbounds nuw %"struct.llvm::detail::PunnedPointer.202", ptr %6, i32 0, i32 0
  store i64 %1, ptr %7, align 8
  store ptr %0, ptr %4, align 8
  %8 = load ptr, ptr %4, align 8
  %9 = getelementptr inbounds nuw %"class.clang::CompoundAssignOperator", ptr %8, i32 0, i32 1
  call void @llvm.memcpy.p0.p0.i64(ptr align 8 %9, ptr align 8 %3, i64 8, i1 false)
  ret void
}

; Function Attrs: mustprogress nounwind uwtable
define linkonce_odr hidden i64 @_ZN5clang15ASTRecordReader8readTypeEv(ptr noundef nonnull align 8 dereferenceable(560) %0) #0 comdat align 2 {
  %2 = alloca %"class.clang::QualType", align 8
  %3 = alloca ptr, align 8
  store ptr %0, ptr %3, align 8
  %4 = load ptr, ptr %3, align 8
  %5 = getelementptr inbounds nuw %"class.clang::ASTRecordReader", ptr %4, i32 0, i32 1
  %6 = load ptr, ptr %5, align 8
  %7 = getelementptr inbounds nuw %"class.clang::ASTRecordReader", ptr %4, i32 0, i32 2
  %8 = load ptr, ptr %7, align 8
  %9 = getelementptr inbounds nuw %"class.clang::ASTRecordReader", ptr %4, i32 0, i32 4
  %10 = getelementptr inbounds nuw %"class.clang::ASTRecordReader", ptr %4, i32 0, i32 3
  %11 = call i64 @_ZN5clang9ASTReader8readTypeERNS_13serialization10ModuleFileERKN4llvm11SmallVectorImLj64EEERj(ptr noundef nonnull align 8 dereferenceable(15968) %6, ptr noundef nonnull align 8 dereferenceable(3464) %8, ptr noundef nonnull align 8 dereferenceable(528) %9, ptr noundef nonnull align 4 dereferenceable(4) %10)
  %12 = getelementptr inbounds nuw %"class.clang::QualType", ptr %2, i32 0, i32 0
  %13 = getelementptr inbounds nuw %"class.llvm::PointerIntPair.201", ptr %12, i32 0, i32 0
  %14 = getelementptr inbounds nuw %"struct.llvm::detail::PunnedPointer.202", ptr %13, i32 0, i32 0
  store i64 %11, ptr %14, align 8
  %15 = getelementptr inbounds nuw %"class.clang::QualType", ptr %2, i32 0, i32 0
  %16 = getelementptr inbounds nuw %"class.llvm::PointerIntPair.201", ptr %15, i32 0, i32 0
  %17 = getelementptr inbounds nuw %"struct.llvm::detail::PunnedPointer.202", ptr %16, i32 0, i32 0
  %18 = load i64, ptr %17, align 8
  ret i64 %18
}

; Function Attrs: mustprogress nounwind uwtable
define dso_local void @_ZN5clang13ASTStmtReader27VisitCompoundAssignOperatorEPNS_22CompoundAssignOperatorE(ptr noundef nonnull align 8 dereferenceable(28) %0, ptr noundef %1) #0 align 2 {
  %3 = alloca ptr, align 8
  %4 = alloca ptr, align 8
  %5 = alloca %"class.clang::QualType", align 8
  %6 = alloca %"class.clang::QualType", align 8
  store ptr %0, ptr %3, align 8
  store ptr %1, ptr %4, align 8
  %7 = load ptr, ptr %3, align 8
  %8 = load ptr, ptr %4, align 8
  call void @_ZN5clang13ASTStmtReader19VisitBinaryOperatorEPNS_14BinaryOperatorE(ptr noundef nonnull align 8 dereferenceable(28) %7, ptr noundef %8)
  %9 = load ptr, ptr %4, align 8
  %10 = getelementptr inbounds nuw %"class.clang::ASTStmtReader", ptr %7, i32 0, i32 0
  %11 = load ptr, ptr %10, align 8
  %12 = call i64 @_ZN5clang15ASTRecordReader8readTypeEv(ptr noundef nonnull align 8 dereferenceable(560) %11)
  %13 = getelementptr inbounds nuw %"class.clang::QualType", ptr %5, i32 0, i32 0
  %14 = getelementptr inbounds nuw %"class.llvm::PointerIntPair.201", ptr %13, i32 0, i32 0
  %15 = getelementptr inbounds nuw %"struct.llvm::detail::PunnedPointer.202", ptr %14, i32 0, i32 0
  store i64 %12, ptr %15, align 8
  %16 = getelementptr inbounds nuw %"class.clang::QualType", ptr %5, i32 0, i32 0
  %17 = getelementptr inbounds nuw %"class.llvm::PointerIntPair.201", ptr %16, i32 0, i32 0
  %18 = getelementptr inbounds nuw %"struct.llvm::detail::PunnedPointer.202", ptr %17, i32 0, i32 0
  %19 = load i64, ptr %18, align 8
  call void @_ZN5clang22CompoundAssignOperator21setComputationLHSTypeENS_8QualTypeE(ptr noundef nonnull align 8 dereferenceable(48) %9, i64 %19)
  %20 = load ptr, ptr %4, align 8
  %21 = getelementptr inbounds nuw %"class.clang::ASTStmtReader", ptr %7, i32 0, i32 0
  %22 = load ptr, ptr %21, align 8
  %23 = call i64 @_ZN5clang15ASTRecordReader8readTypeEv(ptr noundef nonnull align 8 dereferenceable(560) %22)
  %24 = getelementptr inbounds nuw %"class.clang::QualType", ptr %6, i32 0, i32 0
  %25 = getelementptr inbounds nuw %"class.llvm::PointerIntPair.201", ptr %24, i32 0, i32 0
  %26 = getelementptr inbounds nuw %"struct.llvm::detail::PunnedPointer.202", ptr %25, i32 0, i32 0
  store i64 %23, ptr %26, align 8
  %27 = getelementptr inbounds nuw %"class.clang::QualType", ptr %6, i32 0, i32 0
  %28 = getelementptr inbounds nuw %"class.llvm::PointerIntPair.201", ptr %27, i32 0, i32 0
  %29 = getelementptr inbounds nuw %"struct.llvm::detail::PunnedPointer.202", ptr %28, i32 0, i32 0
  %30 = load i64, ptr %29, align 8
  call void @_ZN5clang22CompoundAssignOperator24setComputationResultTypeENS_8QualTypeE(ptr noundef nonnull align 8 dereferenceable(48) %20, i64 %30)
  ret void
}