; Function Attrs: mustprogress nounwind uwtable
define dso_local void @_ZN5clang13ASTStmtReader27VisitCompoundAssignOperatorEPNS_22CompoundAssignOperatorE(ptr noundef nonnull align 8 captures(none) dereferenceable(28) initializes((16, 25)) %0, ptr noundef captures(none) initializes((8, 16)) %1) local_unnamed_addr #0 align 2 {
  tail call void @_ZN5clang13ASTStmtReader19VisitBinaryOperatorEPNS_14BinaryOperatorE(ptr noundef nonnull align 8 dereferenceable(28) %0, ptr noundef %1)
  %3 = load ptr, ptr %0, align 8
  %4 = getelementptr inbounds nuw i8, ptr %3, i64 8
  %5 = load ptr, ptr %4, align 8
  %6 = getelementptr inbounds nuw i8, ptr %3, i64 16
  %7 = load ptr, ptr %6, align 8
  %8 = getelementptr inbounds nuw i8, ptr %3, i64 32
  %9 = getelementptr inbounds nuw i8, ptr %3, i64 24
  %10 = load i32, ptr %9, align 4
  %11 = zext i32 %10 to i64
  %12 = tail call noundef i64 @_ZNK4llvm15SmallVectorBaseIjE4sizeEv(ptr noundef nonnull align 8 dereferenceable(528) %8) #18
  %.not.i.i = icmp ugt i64 %12, %11
  br i1 %.not.i.i, label %13, label %_ZN5clang15ASTRecordReader8readTypeEv.exit

13:                                               ; preds = %2
  %14 = load i32, ptr %9, align 4
  %15 = add i32 %14, 1
  store i32 %15, ptr %9, align 4
  %16 = zext i32 %14 to i64
  %17 = load ptr, ptr %8, align 8
  %18 = getelementptr inbounds nuw i64, ptr %17, i64 %16
  %19 = load i64, ptr %18, align 8
  %20 = tail call i64 @_ZN5clang9ASTReader12getLocalTypeERNS_13serialization10ModuleFileEm(ptr noundef nonnull align 8 dereferenceable(15968) %5, ptr noundef nonnull align 8 dereferenceable(3464) %7, i64 noundef %19) #18
  br label %_ZN5clang15ASTRecordReader8readTypeEv.exit

_ZN5clang15ASTRecordReader8readTypeEv.exit:       ; preds = %2, %13
  %.sroa.0.0.i.i = phi i64 [ %20, %13 ], [ 0, %2 ]
  %21 = getelementptr inbounds nuw i8, ptr %1, i64 32
  store i64 %.sroa.0.0.i.i, ptr %21, align 8
  %22 = load ptr, ptr %0, align 8
  %23 = getelementptr inbounds nuw i8, ptr %22, i64 8
  %24 = load ptr, ptr %23, align 8
  %25 = getelementptr inbounds nuw i8, ptr %22, i64 16
  %26 = load ptr, ptr %25, align 8
  %27 = getelementptr inbounds nuw i8, ptr %22, i64 32
  %28 = getelementptr inbounds nuw i8, ptr %22, i64 24
  %29 = load i32, ptr %28, align 4
  %30 = zext i32 %29 to i64
  %31 = tail call noundef i64 @_ZNK4llvm15SmallVectorBaseIjE4sizeEv(ptr noundef nonnull align 8 dereferenceable(528) %27) #18
  %.not.i.i5 = icmp ugt i64 %31, %30
  br i1 %.not.i.i5, label %32, label %_ZN5clang15ASTRecordReader8readTypeEv.exit7

32:                                               ; preds = %_ZN5clang15ASTRecordReader8readTypeEv.exit
  %33 = load i32, ptr %28, align 4
  %34 = add i32 %33, 1
  store i32 %34, ptr %28, align 4
  %35 = zext i32 %33 to i64
  %36 = load ptr, ptr %27, align 8
  %37 = getelementptr inbounds nuw i64, ptr %36, i64 %35
  %38 = load i64, ptr %37, align 8
  %39 = tail call i64 @_ZN5clang9ASTReader12getLocalTypeERNS_13serialization10ModuleFileEm(ptr noundef nonnull align 8 dereferenceable(15968) %24, ptr noundef nonnull align 8 dereferenceable(3464) %26, i64 noundef %38) #18
  br label %_ZN5clang15ASTRecordReader8readTypeEv.exit7

_ZN5clang15ASTRecordReader8readTypeEv.exit7:      ; preds = %_ZN5clang15ASTRecordReader8readTypeEv.exit, %32
  %.sroa.0.0.i.i6 = phi i64 [ %39, %32 ], [ 0, %_ZN5clang15ASTRecordReader8readTypeEv.exit ]
  %40 = getelementptr inbounds nuw i8, ptr %1, i64 40
  store i64 %.sroa.0.0.i.i6, ptr %40, align 8
  ret void
}